Certificate:
    Data:
        Version: 3 (0x2)
        Serial Number: 1 (0x1)
        Signature Algorithm: sha256WithRSAEncryption
        Issuer: O=Test Org, CN=Test Org rauc CA Development
        Validity
            Not Before: Jan  1 00:00:00 1970 GMT
            Not After : Dec 31 23:59:59 9999 GMT
        Subject: O=Test Org, CN=Test Org rauc CA Development
        Subject Public Key Info:
            Public Key Algorithm: rsaEncryption
                Public-Key: (2048 bit)
                Modulus:
                    00:c5:34:25:1e:ac:db:0a:e2:86:b2:2c:3e:de:85:
                    3b:4a:09:70:8f:7c:dc:18:63:69:de:f2:94:f5:21:
                    35:02:2a:be:4e:bc:30:4d:69:9b:57:61:7d:95:ed:
                    29:dd:17:4b:6c:9c:3c:60:d0:1a:fe:4e:c6:f7:10:
                    c6:d2:d4:54:b9:5e:9f:72:80:7b:67:8f:fd:5b:3e:
                    a8:50:d8:e8:07:54:18:72:04:ea:f2:6d:ba:e4:6d:
                    c7:d4:d3:d6:fa:b6:29:6f:b8:ab:1e:b7:9a:ba:70:
                    da:8d:8f:44:17:ac:da:14:70:ec:ab:76:30:ca:d7:
                    e1:8a:bd:fb:96:fc:3d:91:33:2b:c6:1f:a1:94:56:
                    75:84:b8:b1:b2:b6:0f:ae:3c:fe:8a:f3:c6:44:12:
                    29:43:e0:13:91:74:ca:a9:60:9a:a3:95:52:3d:4b:
                    62:a4:0c:c5:97:30:43:ab:50:24:19:b7:e8:40:3a:
                    88:5c:ff:14:86:bd:28:23:05:51:c1:1d:c3:6a:6b:
                    69:92:fc:c2:58:9a:8a:f4:7e:a5:e1:3b:a3:04:4a:
                    1e:7b:9a:49:54:5f:55:38:3f:e4:f3:dd:c7:b9:f0:
                    6e:27:24:82:82:d7:1d:d0:67:11:7e:6d:72:64:02:
                    2d:d3:b2:2d:c5:eb:62:d9:f9:5e:55:8c:35:bf:ee:
                    d9:79
                Exponent: 65537 (0x10001)
        X509v3 extensions:
            X509v3 Subject Key Identifier: 
                DD:27:D7:D7:5D:69:75:BF:0D:FD:EE:96:E0:F4:94:BB:1E:D3:7A:70
            X509v3 Authority Key Identifier: 
                keyid:DD:27:D7:D7:5D:69:75:BF:0D:FD:EE:96:E0:F4:94:BB:1E:D3:7A:70
                DirName:/O=Test Org/CN=Test Org rauc CA Development
                serial:01
            X509v3 Basic Constraints: 
                CA:TRUE
    Signature Algorithm: sha256WithRSAEncryption
    Signature Value:
        64:ca:e1:0d:dc:55:11:5d:9b:cf:9e:a7:ca:9c:c9:95:32:89:
        2c:19:6e:ec:ee:bf:1d:ae:99:89:c1:2c:54:69:68:08:10:60:
        07:fa:ca:c3:b1:21:5a:e5:78:07:e7:f4:87:76:48:1f:3d:88:
        35:56:d6:60:21:56:1e:2d:4d:42:72:17:84:07:83:82:60:62:
        db:51:48:4b:9d:ef:df:9f:5f:67:28:d8:71:44:3e:88:a8:a6:
        ea:19:59:21:a5:b4:ec:c0:3a:7b:af:93:19:fd:22:9c:0a:20:
        3a:79:76:59:53:60:c3:3e:0c:1b:05:b8:97:c1:74:98:7a:5a:
        a1:87:f0:93:fb:d1:51:3f:d3:20:1f:f1:98:3d:8b:04:47:0e:
        3f:46:7b:2a:49:e7:ec:c3:2c:7b:50:92:be:ec:ea:8e:85:3c:
        77:93:39:12:3a:fa:0a:0d:b6:5f:94:24:3e:a4:e7:ff:a0:44:
        7a:ad:17:0b:52:00:8a:ff:e1:f3:56:87:33:26:d5:ea:61:c9:
        0c:25:a8:cb:eb:42:2f:c9:fa:3e:aa:1b:b6:f2:4e:a3:1c:68:
        58:82:33:b8:9b:46:59:69:d7:5a:7e:22:19:99:38:82:16:59:
        22:5d:08:fd:74:e8:62:71:47:b9:8a:eb:37:60:4c:4d:91:30:
        d3:b0:e4:91
-----BEGIN CERTIFICATE-----
MIIDhjCCAm6gAwIBAgIBATANBgkqhkiG9w0BAQsFADA6MREwDwYDVQQKDAhUZXN0
IE9yZzElMCMGA1UEAwwcVGVzdCBPcmcgcmF1YyBDQSBEZXZlbG9wbWVudDAgFw03
MDAxMDEwMDAwMDBaGA85OTk5MTIzMTIzNTk1OVowOjERMA8GA1UECgwIVGVzdCBP
cmcxJTAjBgNVBAMMHFRlc3QgT3JnIHJhdWMgQ0EgRGV2ZWxvcG1lbnQwggEiMA0G
CSqGSIb3DQEBAQUAA4IBDwAwggEKAoIBAQDFNCUerNsK4oayLD7ehTtKCXCPfNwY
Y2ne8pT1ITUCKr5OvDBNaZtXYX2V7SndF0tsnDxg0Br+Tsb3EMbS1FS5Xp9ygHtn
j/1bPqhQ2OgHVBhyBOrybbrkbcfU09b6tilvuKset5q6cNqNj0QXrNoUcOyrdjDK
1+GKvfuW/D2RMyvGH6GUVnWEuLGytg+uPP6K88ZEEilD4BORdMqpYJqjlVI9S2Kk
DMWXMEOrUCQZt+hAOohc/xSGvSgjBVHBHcNqa2mS/MJYmor0fqXhO6MESh57mklU
X1U4P+Tz3ce58G4nJIKC1x3QZxF+bXJkAi3Tsi3F62LZ+V5VjDW/7tl5AgMBAAGj
gZQwgZEwHQYDVR0OBBYEFN0n19ddaXW/Df3uluD0lLse03pwMGIGA1UdIwRbMFmA
FN0n19ddaXW/Df3uluD0lLse03pwoT6kPDA6MREwDwYDVQQKDAhUZXN0IE9yZzEl
MCMGA1UEAwwcVGVzdCBPcmcgcmF1YyBDQSBEZXZlbG9wbWVudIIBATAMBgNVHRME
BTADAQH/MA0GCSqGSIb3DQEBCwUAA4IBAQBkyuEN3FURXZvPnqfKnMmVMoksGW7s
7r8drpmJwSxUaWgIEGAH+srDsSFa5XgH5/SHdkgfPYg1VtZgIVYeLU1CcheEB4OC
YGLbUUhLne/fn19nKNhxRD6IqKbqGVkhpbTswDp7r5MZ/SKcCiA6eXZZU2DDPgwb
BbiXwXSYelqhh/CT+9FRP9MgH/GYPYsERw4/RnsqSefswyx7UJK+7OqOhTx3kzkS
OvoKDbZflCQ+pOf/oER6rRcLUgCK/+HzVoczJtXqYckMJajL60Ivyfo+qhu28k6j
HGhYgjO4m0ZZaddafiIZmTiCFlkiXQj9dOhicUe5ius3YExNkTDTsOSR
-----END CERTIFICATE-----
